target datalayout = "e-m:e-p270:32:32-p271:32:32-p272:64:64-i64:64-i128:128-f80:128-n8:16:32:64-S128"
target triple = "x86_64-pc-linux-gnu"

%struct.SDL_Mouse = type { ptr, ptr, ptr, ptr, ptr, ptr, ptr, ptr, ptr, ptr, ptr, ptr, ptr, ptr, i8, float, float, ptr, float, float, float, float, float, float, float, float, double, double, i8, i8, i8, i8, i8, i8, i8, i8, i64, i8, float, i8, float, i8, i32, i32, i8, i8, i8, i8, i8, i8, i8, i8, i8, ptr, i32, ptr, ptr, ptr, ptr, i8, ptr }
%struct.SDL_Rect = type { i32, i32, i32, i32 }
%struct.SDL_MouseInputSource = type { i32, i32, i32, ptr }
%struct.SDL_Window = type { i32, ptr, ptr, i32, i32, i32, i32, i32, i32, i32, i32, float, float, i32, i32, i64, i64, float, i8, i8, i32, i32, %struct.SDL_Rect, %struct.SDL_Rect, %struct.SDL_Rect, i8, i8, i8, %struct.SDL_DisplayMode, %struct.SDL_DisplayMode, %struct.SDL_HDROutputProperties, float, ptr, i8, i8, i8, i8, i8, i8, i8, i8, i8, i32, i32, i32, i32, %struct.SDL_Rect, i32, i8, %struct.SDL_Rect, i32, %struct.SDL_Rect, ptr, ptr, i32, float, i32, i32, ptr, ptr, ptr, ptr, ptr, ptr, ptr, ptr, ptr }
%struct.SDL_DisplayMode = type { i32, i32, i32, i32, float, float, i32, i32, ptr }
%struct.SDL_HDROutputProperties = type { float, float }

@SDL_mouse = internal global %struct.SDL_Mouse zeroinitializer, align 8

; Function Attrs: nounwind uwtable
define internal i32 @SDL_GetMouseButtonState(ptr noundef %0, i32 noundef %1, i1 noundef zeroext %2) #0 {
  %4 = alloca ptr, align 8
  %5 = alloca i32, align 4
  %6 = alloca i8, align 1
  %7 = alloca i32, align 4
  %8 = alloca i32, align 4
  store ptr %0, ptr %4, align 8
  store i32 %1, ptr %5, align 4
  %9 = zext i1 %2 to i8
  store i8 %9, ptr %6, align 1
  call void @llvm.lifetime.start.p0(i64 4, ptr %7) #7
  call void @llvm.lifetime.start.p0(i64 4, ptr %8) #7
  store i32 0, ptr %8, align 4
  store i32 0, ptr %7, align 4
  br label %10

10:                                               ; preds = %71, %3
  %11 = load i32, ptr %7, align 4
  %12 = load ptr, ptr %4, align 8
  %13 = getelementptr inbounds nuw %struct.SDL_Mouse, ptr %12, i32 0, i32 54
  %14 = load i32, ptr %13, align 8
  %15 = icmp slt i32 %11, %14
  br i1 %15, label %16, label %74

16:                                               ; preds = %10
  %17 = load i32, ptr %5, align 4
  %18 = icmp eq i32 %17, 0
  br i1 %18, label %22, label %19

19:                                               ; preds = %16
  %20 = load i32, ptr %5, align 4
  %21 = icmp eq i32 %20, -1
  br i1 %21, label %22, label %47

22:                                               ; preds = %19, %16
  %23 = load i8, ptr %6, align 1, !range !3, !noundef !4
  %24 = trunc i8 %23 to i1
  br i1 %24, label %35, label %25

25:                                               ; preds = %22
  %26 = load ptr, ptr %4, align 8
  %27 = getelementptr inbounds nuw %struct.SDL_Mouse, ptr %26, i32 0, i32 55
  %28 = load ptr, ptr %27, align 8
  %29 = load i32, ptr %7, align 4
  %30 = sext i32 %29 to i64
  %31 = getelementptr inbounds %struct.SDL_MouseInputSource, ptr %28, i64 %30
  %32 = getelementptr inbounds nuw %struct.SDL_MouseInputSource, ptr %31, i32 0, i32 0
  %33 = load i32, ptr %32, align 8
  %34 = icmp ne i32 %33, -1
  br i1 %34, label %35, label %46

35:                                               ; preds = %25, %22
  %36 = load ptr, ptr %4, align 8
  %37 = getelementptr inbounds nuw %struct.SDL_Mouse, ptr %36, i32 0, i32 55
  %38 = load ptr, ptr %37, align 8
  %39 = load i32, ptr %7, align 4
  %40 = sext i32 %39 to i64
  %41 = getelementptr inbounds %struct.SDL_MouseInputSource, ptr %38, i64 %40
  %42 = getelementptr inbounds nuw %struct.SDL_MouseInputSource, ptr %41, i32 0, i32 1
  %43 = load i32, ptr %42, align 4
  %44 = load i32, ptr %8, align 4
  %45 = or i32 %44, %43
  store i32 %45, ptr %8, align 4
  br label %46

46:                                               ; preds = %35, %25
  br label %70

47:                                               ; preds = %19
  %48 = load i32, ptr %5, align 4
  %49 = load ptr, ptr %4, align 8
  %50 = getelementptr inbounds nuw %struct.SDL_Mouse, ptr %49, i32 0, i32 55
  %51 = load ptr, ptr %50, align 8
  %52 = load i32, ptr %7, align 4
  %53 = sext i32 %52 to i64
  %54 = getelementptr inbounds %struct.SDL_MouseInputSource, ptr %51, i64 %53
  %55 = getelementptr inbounds nuw %struct.SDL_MouseInputSource, ptr %54, i32 0, i32 0
  %56 = load i32, ptr %55, align 8
  %57 = icmp eq i32 %48, %56
  br i1 %57, label %58, label %69

58:                                               ; preds = %47
  %59 = load ptr, ptr %4, align 8
  %60 = getelementptr inbounds nuw %struct.SDL_Mouse, ptr %59, i32 0, i32 55
  %61 = load ptr, ptr %60, align 8
  %62 = load i32, ptr %7, align 4
  %63 = sext i32 %62 to i64
  %64 = getelementptr inbounds %struct.SDL_MouseInputSource, ptr %61, i64 %63
  %65 = getelementptr inbounds nuw %struct.SDL_MouseInputSource, ptr %64, i32 0, i32 1
  %66 = load i32, ptr %65, align 4
  %67 = load i32, ptr %8, align 4
  %68 = or i32 %67, %66
  store i32 %68, ptr %8, align 4
  br label %74

69:                                               ; preds = %47
  br label %70

70:                                               ; preds = %69, %46
  br label %71

71:                                               ; preds = %70
  %72 = load i32, ptr %7, align 4
  %73 = add nsw i32 %72, 1
  store i32 %73, ptr %7, align 4
  br label %10, !llvm.loop !11

74:                                               ; preds = %58, %10
  %75 = load i32, ptr %8, align 4
  call void @llvm.lifetime.end.p0(i64 4, ptr %8) #7
  call void @llvm.lifetime.end.p0(i64 4, ptr %7) #7
  ret i32 %75
}

; Function Attrs: nounwind uwtable
define hidden ptr @SDL_GetMouse() #0 {
  ret ptr @SDL_mouse
}

; Function Attrs: nounwind uwtable
define hidden zeroext i1 @SDL_UpdateMouseCapture(i1 noundef zeroext %0) #0 {
  %2 = alloca i1, align 1
  %3 = alloca i8, align 1
  %4 = alloca ptr, align 8
  %5 = alloca ptr, align 8
  %6 = alloca i32, align 4
  %7 = alloca ptr, align 8
  %8 = zext i1 %0 to i8
  store i8 %8, ptr %3, align 1
  call void @llvm.lifetime.start.p0(i64 8, ptr %4) #7
  %9 = call ptr @SDL_GetMouse()
  store ptr %9, ptr %4, align 8
  call void @llvm.lifetime.start.p0(i64 8, ptr %5) #7
  store ptr null, ptr %5, align 8
  %10 = load ptr, ptr %4, align 8
  %11 = getelementptr inbounds nuw %struct.SDL_Mouse, ptr %10, i32 0, i32 8
  %12 = load ptr, ptr %11, align 8
  %13 = icmp ne ptr %12, null
  br i1 %13, label %15, label %14

14:                                               ; preds = %1
  store i1 true, ptr %2, align 1
  store i32 1, ptr %6, align 4
  br label %105

15:                                               ; preds = %1
  %16 = load i8, ptr %3, align 1, !range !3, !noundef !4
  %17 = trunc i8 %16 to i1
  br i1 %17, label %46, label %18

18:                                               ; preds = %15
  %19 = call i32 @SDL_GetMessageBoxCount()
  %20 = icmp eq i32 %19, 0
  br i1 %20, label %21, label %45

21:                                               ; preds = %18
  %22 = load ptr, ptr %4, align 8
  %23 = getelementptr inbounds nuw %struct.SDL_Mouse, ptr %22, i32 0, i32 52
  %24 = load i8, ptr %23, align 4, !range !3, !noundef !4
  %25 = trunc i8 %24 to i1
  br i1 %25, label %35, label %26

26:                                               ; preds = %21
  %27 = load ptr, ptr %4, align 8
  %28 = getelementptr inbounds nuw %struct.SDL_Mouse, ptr %27, i32 0, i32 51
  %29 = load i8, ptr %28, align 1, !range !3, !noundef !4
  %30 = trunc i8 %29 to i1
  br i1 %30, label %31, label %45

31:                                               ; preds = %26
  %32 = load ptr, ptr %4, align 8
  %33 = call i32 @SDL_GetMouseButtonState(ptr noundef %32, i32 noundef 0, i1 noundef zeroext false)
  %34 = icmp ne i32 %33, 0
  br i1 %34, label %35, label %45

35:                                               ; preds = %31, %21
  %36 = load ptr, ptr %4, align 8
  %37 = getelementptr inbounds nuw %struct.SDL_Mouse, ptr %36, i32 0, i32 29
  %38 = load i8, ptr %37, align 1, !range !3, !noundef !4
  %39 = trunc i8 %38 to i1
  br i1 %39, label %44, label %40

40:                                               ; preds = %35
  %41 = load ptr, ptr %4, align 8
  %42 = getelementptr inbounds nuw %struct.SDL_Mouse, ptr %41, i32 0, i32 17
  %43 = load ptr, ptr %42, align 8
  store ptr %43, ptr %5, align 8
  br label %44

44:                                               ; preds = %40, %35
  br label %45

45:                                               ; preds = %44, %31, %26, %18
  br label %46

46:                                               ; preds = %45, %15
  %47 = load ptr, ptr %5, align 8
  %48 = load ptr, ptr %4, align 8
  %49 = getelementptr inbounds nuw %struct.SDL_Mouse, ptr %48, i32 0, i32 53
  %50 = load ptr, ptr %49, align 8
  %51 = icmp ne ptr %47, %50
  br i1 %51, label %52, label %104

52:                                               ; preds = %46
  call void @llvm.lifetime.start.p0(i64 8, ptr %7) #7
  %53 = load ptr, ptr %4, align 8
  %54 = getelementptr inbounds nuw %struct.SDL_Mouse, ptr %53, i32 0, i32 53
  %55 = load ptr, ptr %54, align 8
  store ptr %55, ptr %7, align 8
  %56 = load ptr, ptr %7, align 8
  %57 = icmp ne ptr %56, null
  br i1 %57, label %58, label %63

58:                                               ; preds = %52
  %59 = load ptr, ptr %7, align 8
  %60 = getelementptr inbounds nuw %struct.SDL_Window, ptr %59, i32 0, i32 15
  %61 = load i64, ptr %60, align 8
  %62 = and i64 %61, -16385
  store i64 %62, ptr %60, align 8
  br label %63

63:                                               ; preds = %58, %52
  %64 = load ptr, ptr %5, align 8
  %65 = icmp ne ptr %64, null
  br i1 %65, label %66, label %71

66:                                               ; preds = %63
  %67 = load ptr, ptr %5, align 8
  %68 = getelementptr inbounds nuw %struct.SDL_Window, ptr %67, i32 0, i32 15
  %69 = load i64, ptr %68, align 8
  %70 = or i64 %69, 16384
  store i64 %70, ptr %68, align 8
  br label %71

71:                                               ; preds = %66, %63
  %72 = load ptr, ptr %5, align 8
  %73 = load ptr, ptr %4, align 8
  %74 = getelementptr inbounds nuw %struct.SDL_Mouse, ptr %73, i32 0, i32 53
  store ptr %72, ptr %74, align 8
  %75 = load ptr, ptr %4, align 8
  %76 = getelementptr inbounds nuw %struct.SDL_Mouse, ptr %75, i32 0, i32 8
  %77 = load ptr, ptr %76, align 8
  %78 = load ptr, ptr %5, align 8
  %79 = call zeroext i1 %77(ptr noundef %78)
  br i1 %79, label %100, label %80

80:                                               ; preds = %71
  %81 = load ptr, ptr %7, align 8
  %82 = icmp ne ptr %81, null
  br i1 %82, label %83, label %88

83:                                               ; preds = %80
  %84 = load ptr, ptr %7, align 8
  %85 = getelementptr inbounds nuw %struct.SDL_Window, ptr %84, i32 0, i32 15
  %86 = load i64, ptr %85, align 8
  %87 = or i64 %86, 16384
  store i64 %87, ptr %85, align 8
  br label %88

88:                                               ; preds = %83, %80
  %89 = load ptr, ptr %5, align 8
  %90 = icmp ne ptr %89, null
  br i1 %90, label %91, label %96

91:                                               ; preds = %88
  %92 = load ptr, ptr %5, align 8
  %93 = getelementptr inbounds nuw %struct.SDL_Window, ptr %92, i32 0, i32 15
  %94 = load i64, ptr %93, align 8
  %95 = and i64 %94, -16385
  store i64 %95, ptr %93, align 8
  br label %96

96:                                               ; preds = %91, %88
  %97 = load ptr, ptr %7, align 8
  %98 = load ptr, ptr %4, align 8
  %99 = getelementptr inbounds nuw %struct.SDL_Mouse, ptr %98, i32 0, i32 53
  store ptr %97, ptr %99, align 8
  store i1 false, ptr %2, align 1
  store i32 1, ptr %6, align 4
  br label %101

100:                                              ; preds = %71
  store i32 0, ptr %6, align 4
  br label %101

101:                                              ; preds = %100, %96
  call void @llvm.lifetime.end.p0(i64 8, ptr %7) #7
  %102 = load i32, ptr %6, align 4
  switch i32 %102, label %105 [
    i32 0, label %103
  ]

103:                                              ; preds = %101
  br label %104

104:                                              ; preds = %103, %46
  store i1 true, ptr %2, align 1
  store i32 1, ptr %6, align 4
  br label %105

105:                                              ; preds = %104, %101, %14
  call void @llvm.lifetime.end.p0(i64 8, ptr %5) #7
  call void @llvm.lifetime.end.p0(i64 8, ptr %4) #7
  %106 = load i1, ptr %2, align 1
  ret i1 %106
}