; Function Attrs: nounwind uwtable
define hidden noundef zeroext i1 @SDL_UpdateMouseCapture(i1 noundef zeroext %0) local_unnamed_addr #0 {
  %2 = load ptr, ptr getelementptr inbounds nuw (i8, ptr @SDL_mouse, i64 64), align 8
  %.not = icmp eq ptr %2, null
  br i1 %.not, label %.critedge, label %3

3:                                                ; preds = %1
  br i1 %0, label %SDL_GetMouseButtonState.exit.thread, label %4

4:                                                ; preds = %3
  %5 = tail call i32 @SDL_GetMessageBoxCount() #13
  %6 = icmp eq i32 %5, 0
  br i1 %6, label %7, label %SDL_GetMouseButtonState.exit.thread

7:                                                ; preds = %4
  %8 = load i8, ptr getelementptr inbounds nuw (i8, ptr @SDL_mouse, i64 236), align 4, !range !3, !noundef !4
  %9 = trunc nuw i8 %8 to i1
  br i1 %9, label %26, label %10

10:                                               ; preds = %7
  %11 = load i8, ptr getelementptr inbounds nuw (i8, ptr @SDL_mouse, i64 235), align 1, !range !3, !noundef !4
  %12 = trunc nuw i8 %11 to i1
  br i1 %12, label %13, label %SDL_GetMouseButtonState.exit.thread

13:                                               ; preds = %10
  %14 = load i32, ptr getelementptr inbounds nuw (i8, ptr @SDL_mouse, i64 248), align 8
  %15 = icmp sgt i32 %14, 0
  br i1 %15, label %.lr.ph.i, label %SDL_GetMouseButtonState.exit.thread

.lr.ph.i:                                         ; preds = %13
  %16 = load ptr, ptr getelementptr inbounds nuw (i8, ptr @SDL_mouse, i64 256), align 8
  %wide.trip.count18.i = zext nneg i32 %14 to i64
  br label %.lr.ph.split.us.split.i

.lr.ph.split.us.split.i:                          ; preds = %23, %.lr.ph.i
  %indvars.iv10.i = phi i64 [ %indvars.iv.next11.i, %23 ], [ 0, %.lr.ph.i ]
  %.03.us.i = phi i32 [ %.2.us.i, %23 ], [ 0, %.lr.ph.i ]
  %17 = getelementptr inbounds nuw %struct.SDL_MouseInputSource, ptr %16, i64 %indvars.iv10.i
  %18 = load i32, ptr %17, align 8
  %.not.us.i = icmp eq i32 %18, -1
  br i1 %.not.us.i, label %23, label %19

19:                                               ; preds = %.lr.ph.split.us.split.i
  %20 = getelementptr inbounds nuw %struct.SDL_MouseInputSource, ptr %16, i64 %indvars.iv10.i, i32 1
  %21 = load i32, ptr %20, align 4
  %22 = or i32 %21, %.03.us.i
  br label %23

23:                                               ; preds = %19, %.lr.ph.split.us.split.i
  %.2.us.i = phi i32 [ %22, %19 ], [ %.03.us.i, %.lr.ph.split.us.split.i ]
  %indvars.iv.next11.i = add nuw nsw i64 %indvars.iv10.i, 1
  %exitcond14.not.i = icmp eq i64 %indvars.iv.next11.i, %wide.trip.count18.i
  br i1 %exitcond14.not.i, label %SDL_GetMouseButtonState.exit, label %.lr.ph.split.us.split.i, !llvm.loop !11

SDL_GetMouseButtonState.exit:                     ; preds = %23
  %.not28 = icmp eq i32 %.2.us.i, 0
  %24 = load i8, ptr getelementptr inbounds nuw (i8, ptr @SDL_mouse, i64 185), align 1, !range !3
  %25 = trunc nuw i8 %24 to i1
  %or.cond = select i1 %.not28, i1 true, i1 %25
  br i1 %or.cond, label %SDL_GetMouseButtonState.exit.thread, label %27

26:                                               ; preds = %7
  %.old = load i8, ptr getelementptr inbounds nuw (i8, ptr @SDL_mouse, i64 185), align 1, !range !3, !noundef !4
  %.old32 = trunc nuw i8 %.old to i1
  br i1 %.old32, label %SDL_GetMouseButtonState.exit.thread, label %27

27:                                               ; preds = %SDL_GetMouseButtonState.exit, %26
  %28 = load ptr, ptr getelementptr inbounds nuw (i8, ptr @SDL_mouse, i64 128), align 8
  br label %SDL_GetMouseButtonState.exit.thread

SDL_GetMouseButtonState.exit.thread:              ; preds = %13, %4, %10, %SDL_GetMouseButtonState.exit, %27, %26, %3
  %.026 = phi ptr [ null, %3 ], [ null, %26 ], [ %28, %27 ], [ null, %SDL_GetMouseButtonState.exit ], [ null, %10 ], [ null, %4 ], [ null, %13 ]
  %29 = load ptr, ptr getelementptr inbounds nuw (i8, ptr @SDL_mouse, i64 240), align 8
  %.not29 = icmp eq ptr %.026, %29
  br i1 %.not29, label %.critedge, label %30

30:                                               ; preds = %SDL_GetMouseButtonState.exit.thread
  %.not30 = icmp eq ptr %29, null
  br i1 %.not30, label %35, label %31

31:                                               ; preds = %30
  %32 = getelementptr inbounds nuw i8, ptr %29, i64 72
  %33 = load i64, ptr %32, align 8
  %34 = and i64 %33, -16385
  store i64 %34, ptr %32, align 8
  br label %35

35:                                               ; preds = %31, %30
  %.not31 = icmp eq ptr %.026, null
  br i1 %.not31, label %40, label %36

36:                                               ; preds = %35
  %37 = getelementptr inbounds nuw i8, ptr %.026, i64 72
  %38 = load i64, ptr %37, align 8
  %39 = or i64 %38, 16384
  store i64 %39, ptr %37, align 8
  br label %40

40:                                               ; preds = %36, %35
  store ptr %.026, ptr getelementptr inbounds nuw (i8, ptr @SDL_mouse, i64 240), align 8
  %41 = load ptr, ptr getelementptr inbounds nuw (i8, ptr @SDL_mouse, i64 64), align 8
  %42 = tail call zeroext i1 %41(ptr noundef %.026) #13
  br i1 %42, label %.critedge, label %43

43:                                               ; preds = %40
  br i1 %.not30, label %48, label %44

44:                                               ; preds = %43
  %45 = getelementptr inbounds nuw i8, ptr %29, i64 72
  %46 = load i64, ptr %45, align 8
  %47 = or i64 %46, 16384
  store i64 %47, ptr %45, align 8
  br label %48

48:                                               ; preds = %44, %43
  br i1 %.not31, label %53, label %49

49:                                               ; preds = %48
  %50 = getelementptr inbounds nuw i8, ptr %.026, i64 72
  %51 = load i64, ptr %50, align 8
  %52 = and i64 %51, -16385
  store i64 %52, ptr %50, align 8
  br label %53

53:                                               ; preds = %49, %48
  store ptr %29, ptr getelementptr inbounds nuw (i8, ptr @SDL_mouse, i64 240), align 8
  br label %.critedge

.critedge:                                        ; preds = %SDL_GetMouseButtonState.exit.thread, %40, %53, %1
  %.0 = phi i1 [ false, %53 ], [ true, %1 ], [ true, %40 ], [ true, %SDL_GetMouseButtonState.exit.thread ]
  ret i1 %.0
}